target datalayout = "e-m:e-p270:32:32-p271:32:32-p272:64:64-i64:64-i128:128-f80:128-n8:16:32:64-S128"
target triple = "x86_64-pc-linux-gnu"

%struct.magic_set = type { [2 x ptr], %struct.cont, %struct.out, i32, i32, i32, i32, i32, ptr, i64, i32, %struct.anon, %union.VALUETYPE, i16, i16, i16, i16, i16, i16, i64, i64, i64 }
%struct.cont = type { i64, ptr }
%struct.out = type { ptr, i64, ptr }
%struct.anon = type { ptr, i64, i64, i64 }
%union.VALUETYPE = type { [2 x i64], [112 x i8] }

@.str.39 = private unnamed_addr constant [3 x i8] c"${\00", align 1

; Function Attrs: nounwind uwtable
define internal i32 @varexpand(ptr noundef %0, ptr noundef %1, i64 noundef %2, ptr noundef %3) #0 {
  %5 = alloca i32, align 4
  %6 = alloca ptr, align 8
  %7 = alloca ptr, align 8
  %8 = alloca i64, align 8
  %9 = alloca ptr, align 8
  %10 = alloca ptr, align 8
  %11 = alloca ptr, align 8
  %12 = alloca ptr, align 8
  %13 = alloca ptr, align 8
  %14 = alloca ptr, align 8
  %15 = alloca ptr, align 8
  %16 = alloca i64, align 8
  store ptr %0, ptr %6, align 8
  store ptr %1, ptr %7, align 8
  store i64 %2, ptr %8, align 8
  store ptr %3, ptr %9, align 8
  %17 = load ptr, ptr %9, align 8
  store ptr %17, ptr %11, align 8
  br label %18

18:                                               ; preds = %135, %4
  %19 = load ptr, ptr %11, align 8
  %20 = call ptr @strstr(ptr noundef %19, ptr noundef @.str.39) #12
  store ptr %20, ptr %10, align 8
  %21 = icmp ne ptr %20, null
  br i1 %21, label %22, label %147

22:                                               ; preds = %18
  %23 = load ptr, ptr %10, align 8
  %24 = load ptr, ptr %11, align 8
  %25 = ptrtoint ptr %23 to i64
  %26 = ptrtoint ptr %24 to i64
  %27 = sub i64 %25, %26
  store i64 %27, ptr %16, align 8
  %28 = load i64, ptr %16, align 8
  %29 = load i64, ptr %8, align 8
  %30 = icmp uge i64 %28, %29
  br i1 %30, label %31, label %32

31:                                               ; preds = %22
  store i32 -1, ptr %5, align 4
  br label %161

32:                                               ; preds = %22
  %33 = load ptr, ptr %7, align 8
  %34 = load ptr, ptr %11, align 8
  %35 = load i64, ptr %16, align 8
  call void @llvm.memcpy.p0.p0.i64(ptr align 1 %33, ptr align 1 %34, i64 %35, i1 false)
  %36 = load i64, ptr %16, align 8
  %37 = load ptr, ptr %7, align 8
  %38 = getelementptr inbounds i8, ptr %37, i64 %36
  store ptr %38, ptr %7, align 8
  %39 = load i64, ptr %16, align 8
  %40 = load i64, ptr %8, align 8
  %41 = sub i64 %40, %39
  store i64 %41, ptr %8, align 8
  %42 = load ptr, ptr %10, align 8
  %43 = getelementptr inbounds i8, ptr %42, i64 2
  store ptr %43, ptr %10, align 8
  %44 = load ptr, ptr %10, align 8
  %45 = load i8, ptr %44, align 1
  %46 = icmp ne i8 %45, 0
  br i1 %46, label %47, label %53

47:                                               ; preds = %32
  %48 = load ptr, ptr %10, align 8
  %49 = getelementptr inbounds i8, ptr %48, i64 1
  %50 = load i8, ptr %49, align 1
  %51 = sext i8 %50 to i32
  %52 = icmp ne i32 %51, 63
  br i1 %52, label %53, label %54

53:                                               ; preds = %47, %32
  store i32 -1, ptr %5, align 4
  br label %161

54:                                               ; preds = %47
  %55 = load ptr, ptr %10, align 8
  %56 = getelementptr inbounds i8, ptr %55, i64 2
  store ptr %56, ptr %13, align 8
  store ptr %56, ptr %15, align 8
  br label %57

57:                                               ; preds = %70, %54
  %58 = load ptr, ptr %15, align 8
  %59 = load i8, ptr %58, align 1
  %60 = sext i8 %59 to i32
  %61 = icmp ne i32 %60, 0
  br i1 %61, label %62, label %67

62:                                               ; preds = %57
  %63 = load ptr, ptr %15, align 8
  %64 = load i8, ptr %63, align 1
  %65 = sext i8 %64 to i32
  %66 = icmp ne i32 %65, 58
  br label %67

67:                                               ; preds = %62, %57
  %68 = phi i1 [ false, %57 ], [ %66, %62 ]
  br i1 %68, label %69, label %73

69:                                               ; preds = %67
  br label %70

70:                                               ; preds = %69
  %71 = load ptr, ptr %15, align 8
  %72 = getelementptr inbounds i8, ptr %71, i32 1
  store ptr %72, ptr %15, align 8
  br label %57

73:                                               ; preds = %67
  %74 = load ptr, ptr %15, align 8
  %75 = load i8, ptr %74, align 1
  %76 = sext i8 %75 to i32
  %77 = icmp ne i32 %76, 58
  br i1 %77, label %78, label %79

78:                                               ; preds = %73
  store i32 -1, ptr %5, align 4
  br label %161

79:                                               ; preds = %73
  %80 = load ptr, ptr %15, align 8
  %81 = getelementptr inbounds i8, ptr %80, i64 1
  store ptr %81, ptr %12, align 8
  store ptr %81, ptr %14, align 8
  br label %82

82:                                               ; preds = %95, %79
  %83 = load ptr, ptr %14, align 8
  %84 = load i8, ptr %83, align 1
  %85 = sext i8 %84 to i32
  %86 = icmp ne i32 %85, 0
  br i1 %86, label %87, label %92

87:                                               ; preds = %82
  %88 = load ptr, ptr %14, align 8
  %89 = load i8, ptr %88, align 1
  %90 = sext i8 %89 to i32
  %91 = icmp ne i32 %90, 125
  br label %92

92:                                               ; preds = %87, %82
  %93 = phi i1 [ false, %82 ], [ %91, %87 ]
  br i1 %93, label %94, label %98

94:                                               ; preds = %92
  br label %95

95:                                               ; preds = %94
  %96 = load ptr, ptr %14, align 8
  %97 = getelementptr inbounds i8, ptr %96, i32 1
  store ptr %97, ptr %14, align 8
  br label %82

98:                                               ; preds = %92
  %99 = load ptr, ptr %14, align 8
  %100 = load i8, ptr %99, align 1
  %101 = sext i8 %100 to i32
  %102 = icmp ne i32 %101, 125
  br i1 %102, label %103, label %104

103:                                              ; preds = %98
  store i32 -1, ptr %5, align 4
  br label %161

104:                                              ; preds = %98
  %105 = load ptr, ptr %10, align 8
  %106 = load i8, ptr %105, align 1
  %107 = sext i8 %106 to i32
  switch i32 %107, label %129 [
    i32 120, label %108
  ]

108:                                              ; preds = %104
  %109 = load ptr, ptr %6, align 8
  %110 = getelementptr inbounds %struct.magic_set, ptr %109, i32 0, i32 10
  %111 = load i32, ptr %110, align 8
  %112 = and i32 %111, 73
  %113 = icmp ne i32 %112, 0
  br i1 %113, label %114, label %121

114:                                              ; preds = %108
  %115 = load ptr, ptr %13, align 8
  store ptr %115, ptr %10, align 8
  %116 = load ptr, ptr %15, align 8
  %117 = load ptr, ptr %13, align 8
  %118 = ptrtoint ptr %116 to i64
  %119 = ptrtoint ptr %117 to i64
  %120 = sub i64 %118, %119
  store i64 %120, ptr %16, align 8
  br label %128

121:                                              ; preds = %108
  %122 = load ptr, ptr %12, align 8
  store ptr %122, ptr %10, align 8
  %123 = load ptr, ptr %14, align 8
  %124 = load ptr, ptr %12, align 8
  %125 = ptrtoint ptr %123 to i64
  %126 = ptrtoint ptr %124 to i64
  %127 = sub i64 %125, %126
  store i64 %127, ptr %16, align 8
  br label %128

128:                                              ; preds = %121, %114
  br label %130

129:                                              ; preds = %104
  store i32 -1, ptr %5, align 4
  br label %161

130:                                              ; preds = %128
  %131 = load i64, ptr %16, align 8
  %132 = load i64, ptr %8, align 8
  %133 = icmp uge i64 %131, %132
  br i1 %133, label %134, label %135

134:                                              ; preds = %130
  store i32 -1, ptr %5, align 4
  br label %161

135:                                              ; preds = %130
  %136 = load ptr, ptr %7, align 8
  %137 = load ptr, ptr %10, align 8
  %138 = load i64, ptr %16, align 8
  call void @llvm.memcpy.p0.p0.i64(ptr align 1 %136, ptr align 1 %137, i64 %138, i1 false)
  %139 = load i64, ptr %16, align 8
  %140 = load ptr, ptr %7, align 8
  %141 = getelementptr inbounds i8, ptr %140, i64 %139
  store ptr %141, ptr %7, align 8
  %142 = load i64, ptr %16, align 8
  %143 = load i64, ptr %8, align 8
  %144 = sub i64 %143, %142
  store i64 %144, ptr %8, align 8
  %145 = load ptr, ptr %14, align 8
  %146 = getelementptr inbounds i8, ptr %145, i64 1
  store ptr %146, ptr %11, align 8
  br label %18

147:                                              ; preds = %18
  %148 = load ptr, ptr %11, align 8
  %149 = call i64 @strlen(ptr noundef %148) #12
  store i64 %149, ptr %16, align 8
  %150 = load i64, ptr %16, align 8
  %151 = load i64, ptr %8, align 8
  %152 = icmp uge i64 %150, %151
  br i1 %152, label %153, label %154

153:                                              ; preds = %147
  store i32 -1, ptr %5, align 4
  br label %161

154:                                              ; preds = %147
  %155 = load ptr, ptr %7, align 8
  %156 = load ptr, ptr %11, align 8
  %157 = load i64, ptr %16, align 8
  call void @llvm.memcpy.p0.p0.i64(ptr align 1 %155, ptr align 1 %156, i64 %157, i1 false)
  %158 = load ptr, ptr %7, align 8
  %159 = load i64, ptr %16, align 8
  %160 = getelementptr inbounds i8, ptr %158, i64 %159
  store i8 0, ptr %160, align 1
  store i32 0, ptr %5, align 4
  br label %161

161:                                              ; preds = %154, %153, %134, %129, %103, %78, %53, %31
  %162 = load i32, ptr %5, align 4
  ret i32 %162
}