; Function Attrs: nofree nounwind memory(readwrite, inaccessiblemem: none) uwtable
define internal fastcc noundef i32 @varexpand(ptr nocapture noundef readonly %0, ptr nocapture noundef writeonly %1, i64 noundef %2, ptr noundef %3) unnamed_addr #16 {
  %5 = tail call ptr @strstr(ptr noundef nonnull dereferenceable(1) %3, ptr noundef nonnull dereferenceable(1) @.str.39) #25
  %.not92 = icmp eq ptr %5, null
  br i1 %.not92, label %._crit_edge, label %.lr.ph

.lr.ph:                                           ; preds = %4
  %6 = getelementptr inbounds i8, ptr %0, i64 96
  br label %7

7:                                                ; preds = %.lr.ph, %42
  %8 = phi ptr [ %5, %.lr.ph ], [ %46, %42 ]
  %.05795 = phi ptr [ %1, %.lr.ph ], [ %43, %42 ]
  %.05894 = phi ptr [ %3, %.lr.ph ], [ %45, %42 ]
  %.06093 = phi i64 [ %2, %.lr.ph ], [ %44, %42 ]
  %9 = ptrtoint ptr %8 to i64
  %10 = ptrtoint ptr %.05894 to i64
  %11 = sub i64 %9, %10
  %.not68 = icmp ult i64 %11, %.06093
  br i1 %.not68, label %12, label %.loopexit

12:                                               ; preds = %7
  tail call void @llvm.memcpy.p0.p0.i64(ptr align 1 %.05795, ptr align 1 %.05894, i64 %11, i1 false)
  %13 = getelementptr inbounds i8, ptr %.05795, i64 %11
  %14 = sub i64 %.06093, %11
  %15 = getelementptr inbounds i8, ptr %8, i64 2
  %16 = load i8, ptr %15, align 1
  %.not69 = icmp eq i8 %16, 0
  br i1 %.not69, label %.loopexit, label %17

17:                                               ; preds = %12
  %18 = getelementptr inbounds i8, ptr %8, i64 3
  %19 = load i8, ptr %18, align 1
  %.not70 = icmp eq i8 %19, 63
  br i1 %.not70, label %20, label %.loopexit

20:                                               ; preds = %17
  %21 = getelementptr inbounds i8, ptr %8, i64 4
  br label %22

22:                                               ; preds = %24, %20
  %.054 = phi ptr [ %21, %20 ], [ %25, %24 ]
  %23 = load i8, ptr %.054, align 1
  switch i8 %23, label %24 [
    i8 58, label %26
    i8 0, label %.loopexit
  ]

24:                                               ; preds = %22
  %25 = getelementptr inbounds i8, ptr %.054, i64 1
  br label %22

26:                                               ; preds = %22
  %27 = getelementptr inbounds i8, ptr %.054, i64 1
  br label %28

28:                                               ; preds = %30, %26
  %.055 = phi ptr [ %27, %26 ], [ %31, %30 ]
  %29 = load i8, ptr %.055, align 1
  switch i8 %29, label %30 [
    i8 125, label %32
    i8 0, label %.loopexit
  ]

30:                                               ; preds = %28
  %31 = getelementptr inbounds i8, ptr %.055, i64 1
  br label %28

32:                                               ; preds = %28
  %cond = icmp eq i8 %16, 120
  br i1 %cond, label %33, label %.loopexit

33:                                               ; preds = %32
  %34 = load i32, ptr %6, align 8
  %35 = and i32 %34, 73
  %.not77 = icmp eq i32 %35, 0
  %36 = ptrtoint ptr %.054 to i64
  %37 = ptrtoint ptr %21 to i64
  %38 = sub i64 %36, %37
  %39 = ptrtoint ptr %.055 to i64
  %40 = ptrtoint ptr %27 to i64
  %41 = sub i64 %39, %40
  %.0 = select i1 %.not77, i64 %41, i64 %38
  %.not78 = icmp ult i64 %.0, %14
  br i1 %.not78, label %42, label %.loopexit

42:                                               ; preds = %33
  %.059 = select i1 %.not77, ptr %27, ptr %21
  tail call void @llvm.memcpy.p0.p0.i64(ptr align 1 %13, ptr nonnull align 1 %.059, i64 %.0, i1 false)
  %43 = getelementptr inbounds i8, ptr %13, i64 %.0
  %44 = sub i64 %14, %.0
  %45 = getelementptr inbounds i8, ptr %.055, i64 1
  %46 = tail call ptr @strstr(ptr noundef nonnull dereferenceable(1) %45, ptr noundef nonnull dereferenceable(1) @.str.39) #25
  %.not = icmp eq ptr %46, null
  br i1 %.not, label %._crit_edge, label %7

._crit_edge:                                      ; preds = %42, %4
  %.060.lcssa = phi i64 [ %2, %4 ], [ %44, %42 ]
  %.058.lcssa = phi ptr [ %3, %4 ], [ %45, %42 ]
  %.057.lcssa = phi ptr [ %1, %4 ], [ %43, %42 ]
  %47 = tail call i64 @strlen(ptr noundef nonnull dereferenceable(1) %.058.lcssa) #25
  %.not67 = icmp ult i64 %47, %.060.lcssa
  br i1 %.not67, label %48, label %.loopexit

48:                                               ; preds = %._crit_edge
  tail call void @llvm.memcpy.p0.p0.i64(ptr align 1 %.057.lcssa, ptr align 1 %.058.lcssa, i64 %47, i1 false)
  %49 = getelementptr inbounds i8, ptr %.057.lcssa, i64 %47
  store i8 0, ptr %49, align 1
  br label %.loopexit

.loopexit:                                        ; preds = %33, %32, %12, %17, %7, %22, %28, %._crit_edge, %48
  %.056 = phi i32 [ 0, %48 ], [ -1, %._crit_edge ], [ -1, %28 ], [ -1, %22 ], [ -1, %7 ], [ -1, %17 ], [ -1, %12 ], [ -1, %32 ], [ -1, %33 ]
  ret i32 %.056
}